target datalayout = "e-m:e-p270:32:32-p271:32:32-p272:64:64-i64:64-i128:128-f80:128-n8:16:32:64-S128"
target triple = "x86_64-pc-linux-gnu"

%class.CodeSection = type { ptr, ptr, ptr, ptr, ptr, ptr, ptr, ptr, i8, i8, i32, i8, ptr }
%class.CodeBuffer = type { ptr, %class.CodeSection, %class.CodeSection, %class.CodeSection, ptr, ptr, ptr, i32, ptr, %class.OopRecorder, ptr, ptr, ptr, ptr, ptr, i8, i32 }
%class.OopRecorder = type { %class.ValueRecorder, %class.ValueRecorder.0, ptr }
%class.ValueRecorder = type <{ ptr, ptr, ptr, ptr, i8, [7 x i8] }>
%class.ValueRecorder.0 = type <{ ptr, ptr, ptr, ptr, i8, [7 x i8] }>

@g_assert_poison = external global ptr, align 8
@.str = private unnamed_addr constant [37 x i8] c"src/hotspot/share/code/relocInfo.cpp\00", align 1
@.str.10 = private unnamed_addr constant [48 x i8] c"guarantee(sect != CodeBuffer::SECT_NONE) failed\00", align 1
@.str.11 = private unnamed_addr constant [27 x i8] c"lost track of this address\00", align 1

; Function Attrs: mustprogress nounwind uwtable
define linkonce_odr hidden noundef ptr @_ZN10CodeBuffer12code_sectionEi(ptr noundef nonnull align 8 dereferenceable(448) %0, i32 noundef %1) #1 comdat align 2 {
  %3 = alloca ptr, align 8
  %4 = alloca i32, align 4
  %5 = alloca ptr, align 8
  store ptr %0, ptr %3, align 8
  store i32 %1, ptr %4, align 4
  %6 = load ptr, ptr %3, align 8
  %7 = getelementptr inbounds %class.CodeBuffer, ptr %6, i32 0, i32 1
  %8 = load i32, ptr %4, align 4
  %9 = sext i32 %8 to i64
  %10 = getelementptr inbounds %class.CodeSection, ptr %7, i64 %9
  store ptr %10, ptr %5, align 8
  %11 = load ptr, ptr %5, align 8
  ret ptr %11
}

; Function Attrs: mustprogress nounwind uwtable
define linkonce_odr hidden noundef ptr @_ZNK11CodeSection5startEv(ptr noundef nonnull align 8 dereferenceable(88) %0) #1 comdat align 2 {
  %2 = alloca ptr, align 8
  store ptr %0, ptr %2, align 8
  %3 = load ptr, ptr %2, align 8
  %4 = getelementptr inbounds %class.CodeSection, ptr %3, i32 0, i32 0
  %5 = load ptr, ptr %4, align 8
  ret ptr %5
}

; Function Attrs: mustprogress nounwind uwtable
define linkonce_odr hidden noundef ptr @_ZNK10CodeBuffer12code_sectionEi(ptr noundef nonnull align 8 dereferenceable(448) %0, i32 noundef %1) #1 comdat align 2 {
  %3 = alloca ptr, align 8
  %4 = alloca i32, align 4
  store ptr %0, ptr %3, align 8
  store i32 %1, ptr %4, align 4
  %5 = load ptr, ptr %3, align 8
  %6 = load i32, ptr %4, align 4
  %7 = call noundef ptr @_ZN10CodeBuffer12code_sectionEi(ptr noundef nonnull align 8 dereferenceable(448) %5, i32 noundef %6)
  ret ptr %7
}

; Function Attrs: mustprogress nounwind uwtable
define linkonce_odr hidden noundef ptr @_ZNK10CodeBuffer13before_expandEv(ptr noundef nonnull align 8 dereferenceable(448) %0) #1 comdat align 2 {
  %2 = alloca ptr, align 8
  store ptr %0, ptr %2, align 8
  %3 = load ptr, ptr %2, align 8
  %4 = getelementptr inbounds %class.CodeBuffer, ptr %3, i32 0, i32 4
  %5 = load ptr, ptr %4, align 8
  ret ptr %5
}

; Function Attrs: mustprogress nounwind uwtable
define hidden noundef ptr @_ZN10Relocation12new_addr_forEPhPK10CodeBufferPS1_(ptr noundef nonnull align 8 dereferenceable(20) %0, ptr noundef %1, ptr noundef %2, ptr noundef %3) #1 align 2 {
  %5 = alloca ptr, align 8
  %6 = alloca ptr, align 8
  %7 = alloca ptr, align 8
  %8 = alloca ptr, align 8
  %9 = alloca i32, align 4
  %10 = alloca ptr, align 8
  %11 = alloca ptr, align 8
  store ptr %0, ptr %5, align 8
  store ptr %1, ptr %6, align 8
  store ptr %2, ptr %7, align 8
  store ptr %3, ptr %8, align 8
  store i32 -1, ptr %9, align 4
  br label %12

12:                                               ; preds = %23, %4
  %13 = load ptr, ptr %7, align 8
  %14 = icmp ne ptr %13, null
  br i1 %14, label %15, label %26

15:                                               ; preds = %12
  %16 = load ptr, ptr %7, align 8
  %17 = load ptr, ptr %6, align 8
  %18 = call noundef i32 @_ZNK10CodeBuffer16section_index_ofEPh(ptr noundef nonnull align 8 dereferenceable(448) %16, ptr noundef %17)
  store i32 %18, ptr %9, align 4
  %19 = load i32, ptr %9, align 4
  %20 = icmp ne i32 %19, -1
  br i1 %20, label %21, label %22

21:                                               ; preds = %15
  br label %26

22:                                               ; preds = %15
  br label %23

23:                                               ; preds = %22
  %24 = load ptr, ptr %7, align 8
  %25 = call noundef ptr @_ZNK10CodeBuffer13before_expandEv(ptr noundef nonnull align 8 dereferenceable(448) %24)
  store ptr %25, ptr %7, align 8
  br label %12, !llvm.loop !12

26:                                               ; preds = %21, %12
  br label %27

27:                                               ; preds = %26
  %28 = load i32, ptr %9, align 4
  %29 = icmp ne i32 %28, -1
  br i1 %29, label %32, label %30

30:                                               ; preds = %27
  %31 = load ptr, ptr @g_assert_poison, align 8
  store i8 88, ptr %31, align 1
  call void (ptr, i32, ptr, ptr, ...) @_Z15report_vm_errorPKciS0_S0_z(ptr noundef @.str, i32 noundef 345, ptr noundef @.str.10, ptr noundef @.str.11) #7
  unreachable

32:                                               ; preds = %27
  br label %33

33:                                               ; preds = %32
  %34 = load ptr, ptr %7, align 8
  %35 = load i32, ptr %9, align 4
  %36 = call noundef ptr @_ZNK10CodeBuffer12code_sectionEi(ptr noundef nonnull align 8 dereferenceable(448) %34, i32 noundef %35)
  %37 = call noundef ptr @_ZNK11CodeSection5startEv(ptr noundef nonnull align 8 dereferenceable(88) %36)
  store ptr %37, ptr %10, align 8
  %38 = load ptr, ptr %8, align 8
  %39 = load i32, ptr %9, align 4
  %40 = call noundef ptr @_ZN10CodeBuffer12code_sectionEi(ptr noundef nonnull align 8 dereferenceable(448) %38, i32 noundef %39)
  %41 = call noundef ptr @_ZNK11CodeSection5startEv(ptr noundef nonnull align 8 dereferenceable(88) %40)
  store ptr %41, ptr %11, align 8
  %42 = load ptr, ptr %11, align 8
  %43 = load ptr, ptr %6, align 8
  %44 = load ptr, ptr %10, align 8
  %45 = ptrtoint ptr %43 to i64
  %46 = ptrtoint ptr %44 to i64
  %47 = sub i64 %45, %46
  %48 = getelementptr inbounds i8, ptr %42, i64 %47
  ret ptr %48
}

; Function Attrs: mustprogress nounwind uwtable
define linkonce_odr hidden noundef ptr @_ZNK11CodeSection5outerEv(ptr noundef nonnull align 8 dereferenceable(88) %0) #1 comdat align 2 {
  %2 = alloca ptr, align 8
  store ptr %0, ptr %2, align 8
  %3 = load ptr, ptr %2, align 8
  %4 = getelementptr inbounds %class.CodeSection, ptr %3, i32 0, i32 12
  %5 = load ptr, ptr %4, align 8
  ret ptr %5
}

; Function Attrs: mustprogress nounwind uwtable
define linkonce_odr hidden noundef zeroext i1 @_ZNK11CodeSection10allocates2EPh(ptr noundef nonnull align 8 dereferenceable(88) %0, ptr noundef %1) #1 comdat align 2 {
  %3 = alloca ptr, align 8
  %4 = alloca ptr, align 8
  store ptr %0, ptr %3, align 8
  store ptr %1, ptr %4, align 8
  %5 = load ptr, ptr %3, align 8
  %6 = load ptr, ptr %4, align 8
  %7 = getelementptr inbounds %class.CodeSection, ptr %5, i32 0, i32 0
  %8 = load ptr, ptr %7, align 8
  %9 = icmp uge ptr %6, %8
  br i1 %9, label %10, label %15

10:                                               ; preds = %2
  %11 = load ptr, ptr %4, align 8
  %12 = getelementptr inbounds %class.CodeSection, ptr %5, i32 0, i32 3
  %13 = load ptr, ptr %12, align 8
  %14 = icmp ule ptr %11, %13
  br label %15

15:                                               ; preds = %10, %2
  %16 = phi i1 [ false, %2 ], [ %14, %10 ]
  ret i1 %16
}

; Function Attrs: mustprogress nounwind uwtable
define hidden void @_ZN10Relocation17normalize_addressERPhPK11CodeSectionb(ptr noundef nonnull align 8 dereferenceable(20) %0, ptr noundef nonnull align 8 dereferenceable(8) %1, ptr noundef %2, i1 noundef zeroext %3) #1 align 2 {
  %5 = alloca ptr, align 8
  %6 = alloca ptr, align 8
  %7 = alloca ptr, align 8
  %8 = alloca i8, align 1
  %9 = alloca ptr, align 8
  %10 = alloca ptr, align 8
  store ptr %0, ptr %5, align 8
  store ptr %1, ptr %6, align 8
  store ptr %2, ptr %7, align 8
  %11 = zext i1 %3 to i8
  store i8 %11, ptr %8, align 1
  %12 = load ptr, ptr %5, align 8
  %13 = load ptr, ptr %6, align 8
  %14 = load ptr, ptr %13, align 8
  store ptr %14, ptr %9, align 8
  %15 = load ptr, ptr %9, align 8
  %16 = icmp eq ptr %15, null
  br i1 %16, label %21, label %17

17:                                               ; preds = %4
  %18 = load ptr, ptr %7, align 8
  %19 = load ptr, ptr %9, align 8
  %20 = call noundef zeroext i1 @_ZNK11CodeSection10allocates2EPh(ptr noundef nonnull align 8 dereferenceable(88) %18, ptr noundef %19)
  br i1 %20, label %21, label %22

21:                                               ; preds = %17, %4
  br label %30

22:                                               ; preds = %17
  %23 = load ptr, ptr %7, align 8
  %24 = call noundef ptr @_ZNK11CodeSection5outerEv(ptr noundef nonnull align 8 dereferenceable(88) %23)
  store ptr %24, ptr %10, align 8
  %25 = load ptr, ptr %9, align 8
  %26 = load ptr, ptr %10, align 8
  %27 = load ptr, ptr %10, align 8
  %28 = call noundef ptr @_ZN10Relocation12new_addr_forEPhPK10CodeBufferPS1_(ptr noundef nonnull align 8 dereferenceable(20) %12, ptr noundef %25, ptr noundef %26, ptr noundef %27)
  %29 = load ptr, ptr %6, align 8
  store ptr %28, ptr %29, align 8
  br label %30

30:                                               ; preds = %22, %21
  ret void
}