; Function Attrs: mustprogress nounwind uwtable
define hidden void @_ZN10Relocation17normalize_addressERPhPK11CodeSectionb(ptr nocapture noundef nonnull readnone align 8 dereferenceable(20) %0, ptr nocapture noundef nonnull align 8 dereferenceable(8) %1, ptr nocapture noundef readonly %2, i1 noundef zeroext %3) local_unnamed_addr #0 align 2 {
  %5 = load ptr, ptr %1, align 8
  %6 = icmp eq ptr %5, null
  br i1 %6, label %32, label %7

7:                                                ; preds = %4
  %8 = load ptr, ptr %2, align 8
  %.not.i = icmp ule ptr %8, %5
  %9 = getelementptr inbounds i8, ptr %2, i64 24
  %10 = load ptr, ptr %9, align 8
  %11 = icmp uge ptr %10, %5
  %12 = select i1 %.not.i, i1 %11, i1 false
  br i1 %12, label %32, label %13

13:                                               ; preds = %7
  %14 = getelementptr inbounds i8, ptr %2, i64 80
  %15 = load ptr, ptr %14, align 8
  %.not20.i = icmp eq ptr %15, null
  br i1 %.not20.i, label %._crit_edge.i, label %.lr.ph.i

.lr.ph.i:                                         ; preds = %13, %17
  %.021.i = phi ptr [ %19, %17 ], [ %15, %13 ]
  %16 = tail call noundef i32 @_ZNK10CodeBuffer16section_index_ofEPh(ptr noundef nonnull align 8 dereferenceable(448) %.021.i, ptr noundef nonnull %5) #19
  %.not15.i = icmp eq i32 %16, -1
  br i1 %.not15.i, label %17, label %_ZN10Relocation12new_addr_forEPhPK10CodeBufferPS1_.exit

17:                                               ; preds = %.lr.ph.i
  %18 = getelementptr inbounds i8, ptr %.021.i, i64 272
  %19 = load ptr, ptr %18, align 8
  %.not.i10 = icmp eq ptr %19, null
  br i1 %.not.i10, label %._crit_edge.i, label %.lr.ph.i, !llvm.loop !62

._crit_edge.i:                                    ; preds = %17, %13
  %20 = load ptr, ptr @g_assert_poison, align 8
  store i8 88, ptr %20, align 1
  tail call void (ptr, i32, ptr, ptr, ...) @_Z15report_vm_errorPKciS0_S0_z(ptr noundef nonnull @.str, i32 noundef 345, ptr noundef nonnull @.str.10, ptr noundef nonnull @.str.11) #20
  unreachable

_ZN10Relocation12new_addr_forEPhPK10CodeBufferPS1_.exit: ; preds = %.lr.ph.i
  %21 = getelementptr inbounds i8, ptr %.021.i, i64 8
  %22 = sext i32 %16 to i64
  %23 = getelementptr inbounds %class.CodeSection, ptr %21, i64 %22
  %24 = load ptr, ptr %23, align 8
  %25 = getelementptr inbounds i8, ptr %15, i64 8
  %26 = getelementptr inbounds %class.CodeSection, ptr %25, i64 %22
  %27 = load ptr, ptr %26, align 8
  %28 = ptrtoint ptr %5 to i64
  %29 = ptrtoint ptr %24 to i64
  %30 = sub i64 %28, %29
  %31 = getelementptr inbounds i8, ptr %27, i64 %30
  store ptr %31, ptr %1, align 8
  br label %32

32:                                               ; preds = %4, %7, %_ZN10Relocation12new_addr_forEPhPK10CodeBufferPS1_.exit
  ret void
}